target datalayout = "e-m:e-p270:32:32-p271:32:32-p272:64:64-i64:64-i128:128-f80:128-n8:16:32:64-S128"
target triple = "x86_64-pc-linux-gnu"

%struct.PJconsts = type { ptr, ptr, ptr, ptr, ptr, ptr, ptr, ptr, ptr, ptr, ptr, ptr, i32, ptr, ptr, ptr, ptr, ptr, ptr, ptr, ptr, double, double, double, double, double, double, double, double, double, double, double, double, double, double, double, double, double, double, double, double, double, double, i32, i32, i32, i32, i32, i32, i32, i32, i32, i32, i32, ptr, ptr, ptr, ptr, ptr, ptr, double, double, double, double, double, double, double, double, double, double, double, i32, [7 x double], i32, ptr, ptr, double, double, i32, [4 x i8], %"class.std::shared_ptr", i8, double, i8, %"class.std::__cxx11::basic_string", %"class.std::__cxx11::basic_string", %"class.std::__cxx11::basic_string", i8, %"class.std::vector", i32, %"class.std::vector.3", i32, i8, i8, i8, ptr }
%"class.std::shared_ptr" = type { %"class.std::__shared_ptr" }
%"class.std::__shared_ptr" = type { ptr, %"class.std::__shared_count" }
%"class.std::__shared_count" = type { ptr }
%"class.std::__cxx11::basic_string" = type { %"struct.std::__cxx11::basic_string<char>::_Alloc_hider", i64, %union.anon }
%"struct.std::__cxx11::basic_string<char>::_Alloc_hider" = type { ptr }
%union.anon = type { i64, [8 x i8] }
%"class.std::vector" = type { %"struct.std::_Vector_base" }
%"struct.std::_Vector_base" = type { %"struct.std::_Vector_base<osgeo::proj::operation::GridDescription, std::allocator<osgeo::proj::operation::GridDescription>>::_Vector_impl" }
%"struct.std::_Vector_base<osgeo::proj::operation::GridDescription, std::allocator<osgeo::proj::operation::GridDescription>>::_Vector_impl" = type { %"struct.std::_Vector_base<osgeo::proj::operation::GridDescription, std::allocator<osgeo::proj::operation::GridDescription>>::_Vector_impl_data" }
%"struct.std::_Vector_base<osgeo::proj::operation::GridDescription, std::allocator<osgeo::proj::operation::GridDescription>>::_Vector_impl_data" = type { ptr, ptr, ptr }
%"class.std::vector.3" = type { %"struct.std::_Vector_base.4" }
%"struct.std::_Vector_base.4" = type { %"struct.std::_Vector_base<PJCoordOperation, std::allocator<PJCoordOperation>>::_Vector_impl" }
%"struct.std::_Vector_base<PJCoordOperation, std::allocator<PJCoordOperation>>::_Vector_impl" = type { %"struct.std::_Vector_base<PJCoordOperation, std::allocator<PJCoordOperation>>::_Vector_impl_data" }
%"struct.std::_Vector_base<PJCoordOperation, std::allocator<PJCoordOperation>>::_Vector_impl_data" = type { ptr, ptr, ptr }
%"struct.(anonymous namespace)::pj_lcca_data" = type { ptr, double, double, double, double }
%struct.PJ_LP = type { double, double }
%struct.PJ_XY = type { double, double }

; Function Attrs: mustprogress nounwind uwtable
define internal noundef double @_ZL3fSpdd(double noundef %0, double noundef %1) #7 {
  %3 = alloca double, align 8
  %4 = alloca double, align 8
  store double %0, ptr %3, align 8, !tbaa !52
  store double %1, ptr %4, align 8, !tbaa !52
  %5 = load double, ptr %3, align 8, !tbaa !52
  %6 = fmul double 3.000000e+00, %5
  %7 = load double, ptr %3, align 8, !tbaa !52
  %8 = fmul double %6, %7
  %9 = load double, ptr %4, align 8, !tbaa !52
  %10 = call double @llvm.fmuladd.f64(double %8, double %9, double 1.000000e+00)
  ret double %10
}

; Function Attrs: mustprogress nounwind uwtable
define internal noundef double @_ZL2fSdd(double noundef %0, double noundef %1) #7 {
  %3 = alloca double, align 8
  %4 = alloca double, align 8
  store double %0, ptr %3, align 8, !tbaa !52
  store double %1, ptr %4, align 8, !tbaa !52
  %5 = load double, ptr %3, align 8, !tbaa !52
  %6 = load double, ptr %3, align 8, !tbaa !52
  %7 = load double, ptr %3, align 8, !tbaa !52
  %8 = fmul double %6, %7
  %9 = load double, ptr %4, align 8, !tbaa !52
  %10 = call double @llvm.fmuladd.f64(double %8, double %9, double 1.000000e+00)
  %11 = fmul double %5, %10
  ret double %11
}

; Function Attrs: mustprogress uwtable
define internal { double, double } @_ZL14lcca_e_inverse5PJ_XYP8PJconsts(double %0, double %1, ptr noundef %2) #0 {
  %4 = alloca %struct.PJ_LP, align 8
  %5 = alloca %struct.PJ_XY, align 8
  %6 = alloca ptr, align 8
  %7 = alloca ptr, align 8
  %8 = alloca double, align 8
  %9 = alloca double, align 8
  %10 = alloca double, align 8
  %11 = alloca double, align 8
  %12 = alloca i32, align 4
  %13 = alloca i32, align 4
  %14 = getelementptr inbounds nuw { double, double }, ptr %5, i32 0, i32 0
  store double %0, ptr %14, align 8
  %15 = getelementptr inbounds nuw { double, double }, ptr %5, i32 0, i32 1
  store double %1, ptr %15, align 8
  store ptr %2, ptr %6, align 8, !tbaa !3
  call void @llvm.memset.p0.i64(ptr align 8 %4, i8 0, i64 16, i1 false)
  call void @llvm.lifetime.start.p0(i64 8, ptr %7) #8
  %16 = load ptr, ptr %6, align 8, !tbaa !3
  %17 = getelementptr inbounds nuw %struct.PJconsts, ptr %16, i32 0, i32 11
  %18 = load ptr, ptr %17, align 8, !tbaa !43
  store ptr %18, ptr %7, align 8, !tbaa !41
  call void @llvm.lifetime.start.p0(i64 8, ptr %8) #8
  call void @llvm.lifetime.start.p0(i64 8, ptr %9) #8
  call void @llvm.lifetime.start.p0(i64 8, ptr %10) #8
  call void @llvm.lifetime.start.p0(i64 8, ptr %11) #8
  call void @llvm.lifetime.start.p0(i64 4, ptr %12) #8
  %19 = load ptr, ptr %6, align 8, !tbaa !3
  %20 = getelementptr inbounds nuw %struct.PJconsts, ptr %19, i32 0, i32 66
  %21 = load double, ptr %20, align 8, !tbaa !60
  %22 = getelementptr inbounds nuw %struct.PJ_XY, ptr %5, i32 0, i32 0
  %23 = load double, ptr %22, align 8, !tbaa !61
  %24 = fdiv double %23, %21
  store double %24, ptr %22, align 8, !tbaa !61
  %25 = load ptr, ptr %6, align 8, !tbaa !3
  %26 = getelementptr inbounds nuw %struct.PJconsts, ptr %25, i32 0, i32 66
  %27 = load double, ptr %26, align 8, !tbaa !60
  %28 = getelementptr inbounds nuw %struct.PJ_XY, ptr %5, i32 0, i32 1
  %29 = load double, ptr %28, align 8, !tbaa !63
  %30 = fdiv double %29, %27
  store double %30, ptr %28, align 8, !tbaa !63
  %31 = getelementptr inbounds nuw %struct.PJ_XY, ptr %5, i32 0, i32 0
  %32 = load double, ptr %31, align 8, !tbaa !61
  %33 = load ptr, ptr %7, align 8, !tbaa !41
  %34 = getelementptr inbounds nuw %"struct.(anonymous namespace)::pj_lcca_data", ptr %33, i32 0, i32 1
  %35 = load double, ptr %34, align 8, !tbaa !55
  %36 = getelementptr inbounds nuw %struct.PJ_XY, ptr %5, i32 0, i32 1
  %37 = load double, ptr %36, align 8, !tbaa !63
  %38 = fsub double %35, %37
  %39 = call double @atan2(double noundef %32, double noundef %38) #8, !tbaa !49
  store double %39, ptr %8, align 8, !tbaa !52
  %40 = getelementptr inbounds nuw %struct.PJ_XY, ptr %5, i32 0, i32 1
  %41 = load double, ptr %40, align 8, !tbaa !63
  %42 = getelementptr inbounds nuw %struct.PJ_XY, ptr %5, i32 0, i32 0
  %43 = load double, ptr %42, align 8, !tbaa !61
  %44 = load double, ptr %8, align 8, !tbaa !52
  %45 = fmul double 5.000000e-01, %44
  %46 = call double @tan(double noundef %45) #8, !tbaa !49
  %47 = fneg double %43
  %48 = call double @llvm.fmuladd.f64(double %47, double %46, double %41)
  store double %48, ptr %9, align 8, !tbaa !52
  %49 = load double, ptr %8, align 8, !tbaa !52
  %50 = load ptr, ptr %7, align 8, !tbaa !41
  %51 = getelementptr inbounds nuw %"struct.(anonymous namespace)::pj_lcca_data", ptr %50, i32 0, i32 2
  %52 = load double, ptr %51, align 8, !tbaa !50
  %53 = fdiv double %49, %52
  %54 = getelementptr inbounds nuw %struct.PJ_LP, ptr %4, i32 0, i32 0
  store double %53, ptr %54, align 8, !tbaa !64
  %55 = load double, ptr %9, align 8, !tbaa !52
  store double %55, ptr %10, align 8, !tbaa !52
  store i32 10, ptr %12, align 4, !tbaa !49
  br label %56

56:                                               ; preds = %80, %3
  %57 = load i32, ptr %12, align 4, !tbaa !49
  %58 = icmp ne i32 %57, 0
  br i1 %58, label %59, label %83

59:                                               ; preds = %56
  %60 = load double, ptr %10, align 8, !tbaa !52
  %61 = load ptr, ptr %7, align 8, !tbaa !41
  %62 = getelementptr inbounds nuw %"struct.(anonymous namespace)::pj_lcca_data", ptr %61, i32 0, i32 4
  %63 = load double, ptr %62, align 8, !tbaa !56
  %64 = call noundef double @_ZL2fSdd(double noundef %60, double noundef %63)
  %65 = load double, ptr %9, align 8, !tbaa !52
  %66 = fsub double %64, %65
  %67 = load double, ptr %10, align 8, !tbaa !52
  %68 = load ptr, ptr %7, align 8, !tbaa !41
  %69 = getelementptr inbounds nuw %"struct.(anonymous namespace)::pj_lcca_data", ptr %68, i32 0, i32 4
  %70 = load double, ptr %69, align 8, !tbaa !56
  %71 = call noundef double @_ZL3fSpdd(double noundef %67, double noundef %70)
  %72 = fdiv double %66, %71
  store double %72, ptr %11, align 8, !tbaa !52
  %73 = load double, ptr %10, align 8, !tbaa !52
  %74 = fsub double %73, %72
  store double %74, ptr %10, align 8, !tbaa !52
  %75 = load double, ptr %11, align 8, !tbaa !52
  %76 = call double @llvm.fabs.f64(double %75)
  %77 = fcmp olt double %76, 0x3D719799812DEA11
  br i1 %77, label %78, label %79

78:                                               ; preds = %59
  br label %83

79:                                               ; preds = %59
  br label %80

80:                                               ; preds = %79
  %81 = load i32, ptr %12, align 4, !tbaa !49
  %82 = add nsw i32 %81, -1
  store i32 %82, ptr %12, align 4, !tbaa !49
  br label %56, !llvm.loop !66

83:                                               ; preds = %78, %56
  %84 = load i32, ptr %12, align 4, !tbaa !49
  %85 = icmp ne i32 %84, 0
  br i1 %85, label %89, label %86

86:                                               ; preds = %83
  %87 = load ptr, ptr %6, align 8, !tbaa !3
  %88 = call i32 @proj_errno_set(ptr noundef %87, i32 noundef 2050)
  store i32 1, ptr %13, align 4
  br label %100

89:                                               ; preds = %83
  %90 = load double, ptr %10, align 8, !tbaa !52
  %91 = load ptr, ptr %7, align 8, !tbaa !41
  %92 = getelementptr inbounds nuw %"struct.(anonymous namespace)::pj_lcca_data", ptr %91, i32 0, i32 3
  %93 = load double, ptr %92, align 8, !tbaa !51
  %94 = fadd double %90, %93
  %95 = load ptr, ptr %7, align 8, !tbaa !41
  %96 = getelementptr inbounds nuw %"struct.(anonymous namespace)::pj_lcca_data", ptr %95, i32 0, i32 0
  %97 = load ptr, ptr %96, align 8, !tbaa !45
  %98 = call noundef double @_Z11pj_inv_mlfndPKd(double noundef %94, ptr noundef %97)
  %99 = getelementptr inbounds nuw %struct.PJ_LP, ptr %4, i32 0, i32 1
  store double %98, ptr %99, align 8, !tbaa !68
  store i32 1, ptr %13, align 4
  br label %100

100:                                              ; preds = %89, %86
  call void @llvm.lifetime.end.p0(i64 4, ptr %12) #8
  call void @llvm.lifetime.end.p0(i64 8, ptr %11) #8
  call void @llvm.lifetime.end.p0(i64 8, ptr %10) #8
  call void @llvm.lifetime.end.p0(i64 8, ptr %9) #8
  call void @llvm.lifetime.end.p0(i64 8, ptr %8) #8
  call void @llvm.lifetime.end.p0(i64 8, ptr %7) #8
  %101 = load { double, double }, ptr %4, align 8
  ret { double, double } %101
}