; Function Attrs: mustprogress uwtable
define internal { double, double } @_ZL14lcca_e_inverse5PJ_XYP8PJconsts(double %0, double %1, ptr noundef %2) #0 {
  %4 = getelementptr inbounds nuw i8, ptr %2, i64 88
  %5 = load ptr, ptr %4, align 8, !tbaa !40
  %6 = getelementptr inbounds nuw i8, ptr %2, i64 488
  %7 = load double, ptr %6, align 8, !tbaa !56
  %8 = fdiv double %0, %7
  %9 = fdiv double %1, %7
  %10 = getelementptr inbounds nuw i8, ptr %5, i64 8
  %11 = load double, ptr %10, align 8, !tbaa !51
  %12 = fsub double %11, %9
  %13 = tail call double @atan2(double noundef %8, double noundef %12) #7, !tbaa !46
  %14 = fmul double %13, 5.000000e-01
  %15 = tail call double @tan(double noundef %14) #7, !tbaa !46
  %16 = fneg double %8
  %17 = tail call double @llvm.fmuladd.f64(double %16, double %15, double %9)
  %18 = getelementptr inbounds nuw i8, ptr %5, i64 16
  %19 = load double, ptr %18, align 8, !tbaa !47
  %20 = getelementptr inbounds nuw i8, ptr %5, i64 32
  %21 = load double, ptr %20, align 8, !tbaa !52
  br label %24

22:                                               ; preds = %24
  %23 = add nsw i32 %.029, -1
  %.not = icmp eq i32 %23, 0
  br i1 %.not, label %36, label %24, !llvm.loop !57

24:                                               ; preds = %3, %22
  %.029 = phi i32 [ 10, %3 ], [ %23, %22 ]
  %.02628 = phi double [ %17, %3 ], [ %33, %22 ]
  %25 = fmul double %.02628, %.02628
  %26 = tail call double @llvm.fmuladd.f64(double %25, double %21, double 1.000000e+00)
  %27 = fmul double %.02628, %26
  %28 = fsub double %27, %17
  %29 = fmul double %.02628, 3.000000e+00
  %30 = fmul double %.02628, %29
  %31 = tail call noundef double @llvm.fmuladd.f64(double %30, double %21, double 1.000000e+00)
  %32 = fdiv double %28, %31
  %33 = fsub double %.02628, %32
  %34 = tail call double @llvm.fabs.f64(double %32)
  %35 = fcmp olt double %34, 0x3D719799812DEA11
  br i1 %35, label %38, label %22

36:                                               ; preds = %22
  %37 = tail call i32 @proj_errno_set(ptr noundef %2, i32 noundef 2050)
  br label %44

38:                                               ; preds = %24
  %39 = getelementptr inbounds nuw i8, ptr %5, i64 24
  %40 = load double, ptr %39, align 8, !tbaa !48
  %41 = fadd double %33, %40
  %42 = load ptr, ptr %5, align 8, !tbaa !42
  %43 = tail call noundef double @_Z11pj_inv_mlfndPKd(double noundef %41, ptr noundef %42)
  br label %44

44:                                               ; preds = %38, %36
  %.sroa.3.0 = phi double [ %43, %38 ], [ 0.000000e+00, %36 ]
  %45 = fdiv double %13, %19
  %.fca.0.insert = insertvalue { double, double } poison, double %45, 0
  %.fca.1.insert = insertvalue { double, double } %.fca.0.insert, double %.sroa.3.0, 1
  ret { double, double } %.fca.1.insert
}